(dp1
S'135566'
p2
S'carnegie_mellon_university'
p3
sS'85757'
p4
S'brown_university'
p5
sS'265796'
p6
S'mit'
p7
sS'39731'
p8
S'lehigh_university'
p9
sS'21681'
p10
S'university_of_illinois_urbana_champaign'
p11
sS'27479'
p12
S'university_of_florida'
p13
sS'46453'
p14
S'syracuse_university'
p15
sS'138797'
p16
S'uc_berkeley'
p17
sS'1126017'
p18
S'columbia_university'
p19
sS'161473'
p20
S'univeristy_of_texas_austin'
p21
sS'13940'
p22
S'purdue_university_west_lafayette'
p23
sS'18613'
p24
S'university_of_iowa'
p25
sS'281041'
p26
S'bryn_mawr_college'
p27
sS'22129'
p28
S'university_of_california_santa_barbara'
p29
sS'53438'
p30
S'wellesley_college'
p31
sS'6440'
p32
S'cornell_university'
p33
sS'24224'
p34
S'penn_state_university'
p35
sS'43001'
p36
S'university_of_michigan_ann_arbor'
p37
sS'387314'
p38
S'university_of_pennsylvania'
p39
sS'231602'
p40
S'georgia_institute_of_technology'
p41
sS'33894'
p42
S'university_of_wisconsin_madison'
p43
sS'828'
p44
S'dartmouth_college'
p45
sS'35723'
p46
S'west_virginia_university'
p47
s.